Certificate:
    Data:
        Version: 3 (0x2)
        Serial Number: 12288 (0x3000)
    Signature Algorithm: sha256WithRSAEncryption
        Issuer: C=FR, ST=Rhone, L=Lyon, O=Rtone, OU=CERT, CN=sub-inter-CA
        Validity
            Not Before: Mar 13 16:27:40 2019 GMT
            Not After : Mar 12 16:27:40 2020 GMT
        Subject: C=FR, ST=Rhone, L=Lyon, O=Rtone, OU=CERT, CN=37.59.96.8
        Subject Public Key Info:
            Public Key Algorithm: rsaEncryption
                Public-Key: (2048 bit)
                Modulus:
                    00:b3:2e:0f:2a:b7:67:96:6a:28:48:2c:56:e1:fa:
                    56:68:cd:ed:89:26:75:57:1a:ba:76:8c:84:1d:80:
                    4e:eb:85:5f:c4:8e:4a:18:31:2b:1a:bf:95:e0:ca:
                    49:81:75:fe:f5:91:b3:83:82:f5:e7:e4:71:c1:46:
                    f7:8b:30:9d:e6:ce:5c:d0:3e:4d:7c:9b:b2:d2:34:
                    6d:79:d5:97:e9:61:f4:19:bf:6e:22:49:05:28:a2:
                    04:d9:fd:9c:9c:af:88:c8:55:f9:84:15:16:88:7e:
                    65:b6:80:a9:10:64:bd:d4:d8:6e:0b:44:9d:9d:d6:
                    de:c4:c5:f1:a2:be:cd:61:c0:38:5f:bd:8c:21:a3:
                    b0:9d:df:90:35:69:5f:23:e8:8e:0c:7b:ce:c2:af:
                    28:17:b7:d0:0a:93:10:35:0a:2a:1f:68:8e:98:b9:
                    6b:73:c6:a9:09:37:18:96:af:76:5f:43:ab:f2:50:
                    c6:a8:e1:22:cb:09:63:3a:f5:94:76:d9:43:f6:a6:
                    73:ad:a8:24:76:d2:63:2d:ff:48:00:53:88:8d:d8:
                    09:24:a2:7b:c7:be:6a:70:99:c5:2d:e2:65:05:af:
                    5a:b8:93:20:1e:49:74:31:96:d5:d6:2c:65:ed:d3:
                    ac:7a:1d:52:e5:09:c0:b0:48:07:83:64:03:64:03:
                    3c:b1
                Exponent: 65537 (0x10001)
        X509v3 extensions:
            X509v3 Key Usage: critical
                Digital Signature, Key Encipherment
            X509v3 Extended Key Usage: 
                TLS Web Client Authentication, TLS Web Server Authentication
            X509v3 Basic Constraints: critical
                CA:FALSE
            X509v3 Subject Key Identifier: 
                2F:B7:94:61:3E:D7:D8:7E:E5:94:67:5D:8B:56:1D:FB:2B:0B:5B:18
            X509v3 Authority Key Identifier: 
                keyid:82:BA:62:22:CE:D9:FE:F5:20:57:10:90:8B:B5:65:FD:DB:5E:AA:DF
                DirName:/C=FR/ST=Rhone/L=Lyon/O=Rtone/OU=CERT/CN=intermediate-CA
                serial:20:00

    Signature Algorithm: sha256WithRSAEncryption
         3c:66:9c:c8:d7:8b:a0:30:9a:ed:51:94:dc:0c:4a:f9:cc:10:
         19:5a:0d:c9:d4:3c:61:1d:77:b6:7e:7e:46:e6:9c:83:0d:46:
         29:cc:00:1a:37:89:7c:3b:04:ca:cd:91:2d:63:a1:ad:6e:0b:
         b6:37:89:dc:59:09:23:eb:e1:13:8e:e5:cc:a8:0a:b0:1c:7d:
         38:14:8d:d7:40:cf:28:c6:73:7d:f0:70:30:8a:42:03:c8:82:
         d0:ee:10:57:52:37:75:cb:5c:ac:ab:e2:27:4e:b6:c4:13:4a:
         ae:ec:9f:e0:20:86:20:c3:8c:c0:d3:68:fe:77:75:81:29:a7:
         e4:79:83:9e:f4:41:b3:39:fb:6a:a9:81:c1:c0:a3:a9:3f:be:
         d9:da:fd:b9:7a:36:0e:f9:0b:b6:4f:23:13:db:67:be:ea:99:
         de:64:50:96:b3:3f:43:b7:aa:29:77:99:4d:0c:11:c0:eb:11:
         3e:1f:bc:49:86:44:8f:5c:eb:e4:4c:da:aa:e3:31:01:95:46:
         1a:a9:ef:33:64:8c:13:51:4d:c6:d7:b9:66:d5:19:3d:46:15:
         e4:cd:59:16:0e:9f:b0:72:64:6e:a4:03:1b:27:a1:f1:46:73:
         b1:35:88:0a:90:07:4e:f5:16:d2:c8:db:c5:06:3e:50:fe:31:
         5c:94:14:08
-----BEGIN CERTIFICATE-----
MIIEMTCCAxmgAwIBAgICMAAwDQYJKoZIhvcNAQELBQAwYjELMAkGA1UEBhMCRlIx
DjAMBgNVBAgMBVJob25lMQ0wCwYDVQQHDARMeW9uMQ4wDAYDVQQKDAVSdG9uZTEN
MAsGA1UECwwEQ0VSVDEVMBMGA1UEAwwMc3ViLWludGVyLUNBMB4XDTE5MDMxMzE2
Mjc0MFoXDTIwMDMxMjE2Mjc0MFowYDELMAkGA1UEBhMCRlIxDjAMBgNVBAgMBVJo
b25lMQ0wCwYDVQQHDARMeW9uMQ4wDAYDVQQKDAVSdG9uZTENMAsGA1UECwwEQ0VS
VDETMBEGA1UEAwwKMzcuNTkuOTYuODCCASIwDQYJKoZIhvcNAQEBBQADggEPADCC
AQoCggEBALMuDyq3Z5ZqKEgsVuH6VmjN7YkmdVcaunaMhB2ATuuFX8SOShgxKxq/
leDKSYF1/vWRs4OC9efkccFG94swnebOXNA+TXybstI0bXnVl+lh9Bm/biJJBSii
BNn9nJyviMhV+YQVFoh+ZbaAqRBkvdTYbgtEnZ3W3sTF8aK+zWHAOF+9jCGjsJ3f
kDVpXyPojgx7zsKvKBe30AqTEDUKKh9ojpi5a3PGqQk3GJavdl9Dq/JQxqjhIssJ
Yzr1lHbZQ/amc62oJHbSYy3/SABTiI3YCSSie8e+anCZxS3iZQWvWriTIB5JdDGW
1dYsZe3TrHodUuUJwLBIB4NkA2QDPLECAwEAAaOB8jCB7zAOBgNVHQ8BAf8EBAMC
BaAwHQYDVR0lBBYwFAYIKwYBBQUHAwIGCCsGAQUFBwMBMAwGA1UdEwEB/wQCMAAw
HQYDVR0OBBYEFC+3lGE+19h+5ZRnXYtWHfsrC1sYMIGQBgNVHSMEgYgwgYWAFIK6
YiLO2f71IFcQkIu1Zf3bXqrfoWmkZzBlMQswCQYDVQQGEwJGUjEOMAwGA1UECAwF
UmhvbmUxDTALBgNVBAcMBEx5b24xDjAMBgNVBAoMBVJ0b25lMQ0wCwYDVQQLDARD
RVJUMRgwFgYDVQQDDA9pbnRlcm1lZGlhdGUtQ0GCAiAAMA0GCSqGSIb3DQEBCwUA
A4IBAQA8ZpzI14ugMJrtUZTcDEr5zBAZWg3J1DxhHXe2fn5G5pyDDUYpzAAaN4l8
OwTKzZEtY6Gtbgu2N4ncWQkj6+ETjuXMqAqwHH04FI3XQM8oxnN98HAwikIDyILQ
7hBXUjd1y1ysq+InTrbEE0qu7J/gIIYgw4zA02j+d3WBKafkeYOe9EGzOftqqYHB
wKOpP77Z2v25ejYO+Qu2TyMT22e+6pneZFCWsz9Dt6opd5lNDBHA6xE+H7xJhkSP
XOvkTNqq4zEBlUYaqe8zZIwTUU3G17lm1Rk9RhXkzVkWDp+wcmRupAMbJ6HxRnOx
NYgKkAdO9RbSyNvFBj5Q/jFclBQI
-----END CERTIFICATE-----
